; Function Attrs: mustprogress uwtable
define internal noundef ptr @"_ZNSt17_Function_handlerIFP25dependent_expr_simplifierR11ast_managerRK10params_refR20dependent_expr_stateEZ15install_tacticsR14tactic_managerE3$_2E9_M_invokeERKSt9_Any_dataS3_S6_S8_"(ptr nonnull readnone align 8 captures(none) %0, ptr noundef nonnull align 8 dereferenceable(976) %1, ptr nonnull readnone align 8 captures(none) %2, ptr noundef nonnull align 8 dereferenceable(160) %3) #3 align 2 personality ptr @__gxx_personality_v0 {
  %5 = tail call noalias noundef ptr @_ZN6memory8allocateEm(i64 noundef 592)
  %6 = getelementptr inbounds nuw i8, ptr %5, i64 8
  store ptr %1, ptr %6, align 8, !tbaa !59
  %7 = getelementptr inbounds nuw i8, ptr %5, i64 16
  store ptr %3, ptr %7, align 8, !tbaa !304
  %8 = getelementptr inbounds nuw i8, ptr %5, i64 24
  %9 = getelementptr inbounds nuw i8, ptr %3, i64 104
  store ptr %9, ptr %8, align 8, !tbaa !270
  store ptr getelementptr inbounds nuw inrange(-16, 88) (i8, ptr @_ZTV22elim_bounds_simplifier, i64 16), ptr %5, align 8, !tbaa !22
  %10 = getelementptr inbounds nuw i8, ptr %5, i64 32
  store ptr getelementptr inbounds nuw inrange(-16, 16) (i8, ptr @_ZTV14elim_bounds_rw, i64 16), ptr %10, align 8, !tbaa !22
  %11 = getelementptr inbounds nuw i8, ptr %1, i64 712
  %12 = load i32, ptr %11, align 8, !tbaa !386
  %13 = icmp ne i32 %12, 0
  %14 = getelementptr inbounds nuw i8, ptr %5, i64 568
  tail call void @_ZN12rewriter_tplI15elim_bounds_cfgEC2ER11ast_managerbRS0_(ptr noundef nonnull align 8 dereferenceable(560) %10, ptr noundef nonnull align 8 dereferenceable(976) %1, i1 noundef zeroext %13, ptr noundef nonnull align 8 dereferenceable(24) %14)
  store ptr getelementptr inbounds nuw inrange(-16, 16) (i8, ptr @_ZTV14elim_bounds_rw, i64 16), ptr %10, align 8, !tbaa !22
  invoke void @_ZN15elim_bounds_cfgC1ER11ast_manager(ptr noundef nonnull align 8 dereferenceable(24) %14, ptr noundef nonnull align 8 dereferenceable(976) %1)
          to label %"_ZSt10__invoke_rIP25dependent_expr_simplifierRZ15install_tacticsR14tactic_managerE3$_2JR11ast_managerRK10params_refR20dependent_expr_stateEENSt9enable_ifIX16is_invocable_r_vIT_T0_DpT1_EESE_E4typeEOSF_DpOSG_.exit" unwind label %.body.i.i.i.i

.body.i.i.i.i:                                    ; preds = %4
  %15 = landingpad { ptr, i32 }
          cleanup
  tail call void @_ZN12rewriter_tplI15elim_bounds_cfgED2Ev(ptr noundef nonnull align 8 dereferenceable(560) %10) #23
  resume { ptr, i32 } %15

"_ZSt10__invoke_rIP25dependent_expr_simplifierRZ15install_tacticsR14tactic_managerE3$_2JR11ast_managerRK10params_refR20dependent_expr_stateEENSt9enable_ifIX16is_invocable_r_vIT_T0_DpT1_EESE_E4typeEOSF_DpOSG_.exit": ; preds = %4
  ret ptr %5
}